; Function Attrs: nounwind uwtable
define void @validateStateIndex(ptr noundef readonly byval(%struct.Qureg) align 8 captures(none) %0, i64 noundef %1, ptr noundef %2) local_unnamed_addr #3 {
  %4 = getelementptr inbounds nuw i8, ptr %0, i64 4
  %5 = load i32, ptr %4, align 4, !tbaa !26
  %6 = zext nneg i32 %5 to i64
  %7 = shl nuw i64 1, %6
  %8 = icmp slt i64 %1, 0
  %9 = icmp sge i64 %1, %7
  %.not4 = select i1 %8, i1 true, i1 %9
  br i1 %.not4, label %10, label %QuESTAssert.exit

10:                                               ; preds = %3
  tail call void @invalidQuESTInputError(ptr noundef nonnull @.str.8, ptr noundef %2)
  br label %QuESTAssert.exit

QuESTAssert.exit:                                 ; preds = %3, %10
  ret void
}